; ModuleID = '36/454.c'
source_filename = "36/454.c"
target datalayout = "e-m:e-p270:32:32-p271:32:32-p272:64:64-i64:64-f80:128-n8:16:32:64-S128"
target triple = "x86_64-pc-linux-gnu"

@.str = private unnamed_addr constant [5 x i8] c"%s%s\00", align 1
@.str.1 = private unnamed_addr constant [4 x i8] c"YES\00", align 1
@.str.2 = private unnamed_addr constant [3 x i8] c"NO\00", align 1

; Function Attrs: noinline nounwind uwtable
define dso_local i32 @main() #0 {
  %1 = alloca i32, align 4
  %2 = alloca [50 x i8], align 16
  %3 = alloca [50 x i8], align 16
  %4 = alloca i32, align 4
  %5 = alloca i32, align 4
  %6 = alloca i32, align 4
  %7 = alloca i32, align 4
  %8 = alloca i32, align 4
  %9 = alloca i8, align 1
  store i32 0, i32* %1, align 4
  %10 = getelementptr inbounds [50 x i8], [50 x i8]* %2, i64 0, i64 0
  %11 = getelementptr inbounds [50 x i8], [50 x i8]* %3, i64 0, i64 0
  %12 = call i32 (i8*, ...) @__isoc99_scanf(i8* getelementptr inbounds ([5 x i8], [5 x i8]* @.str, i64 0, i64 0), i8* %10, i8* %11)
  %13 = getelementptr inbounds [50 x i8], [50 x i8]* %2, i64 0, i64 0
  %14 = call i64 @strlen(i8* %13) #3
  %15 = trunc i64 %14 to i32
  store i32 %15, i32* %7, align 4
  %16 = getelementptr inbounds [50 x i8], [50 x i8]* %3, i64 0, i64 0
  %17 = call i64 @strlen(i8* %16) #3
  %18 = trunc i64 %17 to i32
  store i32 %18, i32* %8, align 4
  store i32 0, i32* %4, align 4
  br label %19

19:                                               ; preds = %71, %0
  %20 = load i32, i32* %4, align 4
  %21 = load i32, i32* %7, align 4
  %22 = sub nsw i32 %21, 1
  %23 = icmp slt i32 %20, %22
  br i1 %23, label %24, label %74

24:                                               ; preds = %19
  %25 = load i32, i32* %4, align 4
  store i32 %25, i32* %6, align 4
  %26 = load i32, i32* %4, align 4
  %27 = add nsw i32 %26, 1
  store i32 %27, i32* %5, align 4
  br label %28

28:                                               ; preds = %47, %24
  %29 = load i32, i32* %5, align 4
  %30 = load i32, i32* %7, align 4
  %31 = icmp slt i32 %29, %30
  br i1 %31, label %32, label %50

32:                                               ; preds = %28
  %33 = load i32, i32* %5, align 4
  %34 = sext i32 %33 to i64
  %35 = getelementptr inbounds [50 x i8], [50 x i8]* %2, i64 0, i64 %34
  %36 = load i8, i8* %35, align 1
  %37 = sext i8 %36 to i32
  %38 = load i32, i32* %6, align 4
  %39 = sext i32 %38 to i64
  %40 = getelementptr inbounds [50 x i8], [50 x i8]* %2, i64 0, i64 %39
  %41 = load i8, i8* %40, align 1
  %42 = sext i8 %41 to i32
  %43 = icmp sgt i32 %37, %42
  br i1 %43, label %44, label %46

44:                                               ; preds = %32
  %45 = load i32, i32* %5, align 4
  store i32 %45, i32* %6, align 4
  br label %46

46:                                               ; preds = %44, %32
  br label %47

47:                                               ; preds = %46
  %48 = load i32, i32* %5, align 4
  %49 = add nsw i32 %48, 1
  store i32 %49, i32* %5, align 4
  br label %28

50:                                               ; preds = %28
  %51 = load i32, i32* %6, align 4
  %52 = load i32, i32* %4, align 4
  %53 = icmp ne i32 %51, %52
  br i1 %53, label %54, label %70

54:                                               ; preds = %50
  %55 = load i32, i32* %4, align 4
  %56 = sext i32 %55 to i64
  %57 = getelementptr inbounds [50 x i8], [50 x i8]* %2, i64 0, i64 %56
  %58 = load i8, i8* %57, align 1
  store i8 %58, i8* %9, align 1
  %59 = load i32, i32* %6, align 4
  %60 = sext i32 %59 to i64
  %61 = getelementptr inbounds [50 x i8], [50 x i8]* %2, i64 0, i64 %60
  %62 = load i8, i8* %61, align 1
  %63 = load i32, i32* %4, align 4
  %64 = sext i32 %63 to i64
  %65 = getelementptr inbounds [50 x i8], [50 x i8]* %2, i64 0, i64 %64
  store i8 %62, i8* %65, align 1
  %66 = load i8, i8* %9, align 1
  %67 = load i32, i32* %6, align 4
  %68 = sext i32 %67 to i64
  %69 = getelementptr inbounds [50 x i8], [50 x i8]* %2, i64 0, i64 %68
  store i8 %66, i8* %69, align 1
  br label %70

70:                                               ; preds = %54, %50
  br label %71

71:                                               ; preds = %70
  %72 = load i32, i32* %4, align 4
  %73 = add nsw i32 %72, 1
  store i32 %73, i32* %4, align 4
  br label %19

74:                                               ; preds = %19
  store i32 0, i32* %4, align 4
  br label %75

75:                                               ; preds = %127, %74
  %76 = load i32, i32* %4, align 4
  %77 = load i32, i32* %8, align 4
  %78 = sub nsw i32 %77, 1
  %79 = icmp slt i32 %76, %78
  br i1 %79, label %80, label %130

80:                                               ; preds = %75
  %81 = load i32, i32* %4, align 4
  store i32 %81, i32* %6, align 4
  %82 = load i32, i32* %4, align 4
  %83 = add nsw i32 %82, 1
  store i32 %83, i32* %5, align 4
  br label %84

84:                                               ; preds = %103, %80
  %85 = load i32, i32* %5, align 4
  %86 = load i32, i32* %8, align 4
  %87 = icmp slt i32 %85, %86
  br i1 %87, label %88, label %106

88:                                               ; preds = %84
  %89 = load i32, i32* %5, align 4
  %90 = sext i32 %89 to i64
  %91 = getelementptr inbounds [50 x i8], [50 x i8]* %3, i64 0, i64 %90
  %92 = load i8, i8* %91, align 1
  %93 = sext i8 %92 to i32
  %94 = load i32, i32* %6, align 4
  %95 = sext i32 %94 to i64
  %96 = getelementptr inbounds [50 x i8], [50 x i8]* %3, i64 0, i64 %95
  %97 = load i8, i8* %96, align 1
  %98 = sext i8 %97 to i32
  %99 = icmp sgt i32 %93, %98
  br i1 %99, label %100, label %102

100:                                              ; preds = %88
  %101 = load i32, i32* %5, align 4
  store i32 %101, i32* %6, align 4
  br label %102

102:                                              ; preds = %100, %88
  br label %103

103:                                              ; preds = %102
  %104 = load i32, i32* %5, align 4
  %105 = add nsw i32 %104, 1
  store i32 %105, i32* %5, align 4
  br label %84

106:                                              ; preds = %84
  %107 = load i32, i32* %6, align 4
  %108 = load i32, i32* %4, align 4
  %109 = icmp ne i32 %107, %108
  br i1 %109, label %110, label %126

110:                                              ; preds = %106
  %111 = load i32, i32* %4, align 4
  %112 = sext i32 %111 to i64
  %113 = getelementptr inbounds [50 x i8], [50 x i8]* %3, i64 0, i64 %112
  %114 = load i8, i8* %113, align 1
  store i8 %114, i8* %9, align 1
  %115 = load i32, i32* %6, align 4
  %116 = sext i32 %115 to i64
  %117 = getelementptr inbounds [50 x i8], [50 x i8]* %3, i64 0, i64 %116
  %118 = load i8, i8* %117, align 1
  %119 = load i32, i32* %4, align 4
  %120 = sext i32 %119 to i64
  %121 = getelementptr inbounds [50 x i8], [50 x i8]* %3, i64 0, i64 %120
  store i8 %118, i8* %121, align 1
  %122 = load i8, i8* %9, align 1
  %123 = load i32, i32* %6, align 4
  %124 = sext i32 %123 to i64
  %125 = getelementptr inbounds [50 x i8], [50 x i8]* %3, i64 0, i64 %124
  store i8 %122, i8* %125, align 1
  br label %126

126:                                              ; preds = %110, %106
  br label %127

127:                                              ; preds = %126
  %128 = load i32, i32* %4, align 4
  %129 = add nsw i32 %128, 1
  store i32 %129, i32* %4, align 4
  br label %75

130:                                              ; preds = %75
  %131 = getelementptr inbounds [50 x i8], [50 x i8]* %2, i64 0, i64 0
  %132 = getelementptr inbounds [50 x i8], [50 x i8]* %3, i64 0, i64 0
  %133 = call i32 @strcmp(i8* %131, i8* %132) #3
  %134 = icmp eq i32 %133, 0
  br i1 %134, label %135, label %137

135:                                              ; preds = %130
  %136 = call i32 (i8*, ...) @printf(i8* getelementptr inbounds ([4 x i8], [4 x i8]* @.str.1, i64 0, i64 0))
  br label %139

137:                                              ; preds = %130
  %138 = call i32 (i8*, ...) @printf(i8* getelementptr inbounds ([3 x i8], [3 x i8]* @.str.2, i64 0, i64 0))
  br label %139

139:                                              ; preds = %137, %135
  %140 = load i32, i32* %1, align 4
  ret i32 %140
}

declare dso_local i32 @__isoc99_scanf(i8*, ...) #1

; Function Attrs: nounwind readonly
declare dso_local i64 @strlen(i8*) #2

; Function Attrs: nounwind readonly
declare dso_local i32 @strcmp(i8*, i8*) #2

declare dso_local i32 @printf(i8*, ...) #1


!llvm.module.flags = !{!0}
!llvm.ident = !{!1}

!0 = !{i32 1, !"wchar_size", i32 4}
!1 = !{!"clang version 10.0.0-4ubuntu1 "}
